target datalayout = "e-m:e-p270:32:32-p271:32:32-p272:64:64-i64:64-i128:128-f80:128-n8:16:32:64-S128"
target triple = "x86_64-pc-linux-gnu"

%struct.HashAggSpill = type { i32, ptr, ptr, i32, i32, ptr }
%struct.hyperLogLogState = type { i8, i64, double, ptr, i64 }

; Function Attrs: nounwind uwtable
define internal i32 @hash_choose_num_partitions(double noundef %0, double noundef %1, i32 noundef %2, ptr noundef %3) #0 {
  %5 = alloca double, align 8
  %6 = alloca double, align 8
  %7 = alloca i32, align 4
  %8 = alloca ptr, align 8
  %9 = alloca i64, align 8
  %10 = alloca double, align 8
  %11 = alloca double, align 8
  %12 = alloca double, align 8
  %13 = alloca i32, align 4
  %14 = alloca i32, align 4
  store double %0, ptr %5, align 8
  store double %1, ptr %6, align 8
  store i32 %2, ptr %7, align 4
  store ptr %3, ptr %8, align 8
  call void @llvm.lifetime.start.p0(i64 8, ptr %9) #9
  %15 = call i64 @get_hash_memory_limit()
  store i64 %15, ptr %9, align 8
  call void @llvm.lifetime.start.p0(i64 8, ptr %10) #9
  call void @llvm.lifetime.start.p0(i64 8, ptr %11) #9
  call void @llvm.lifetime.start.p0(i64 8, ptr %12) #9
  call void @llvm.lifetime.start.p0(i64 4, ptr %13) #9
  call void @llvm.lifetime.start.p0(i64 4, ptr %14) #9
  %16 = load i64, ptr %9, align 8
  %17 = uitofp i64 %16 to double
  %18 = call double @llvm.fmuladd.f64(double %17, double 2.500000e-01, double -8.192000e+03)
  %19 = fdiv double %18, 8.192000e+03
  store double %19, ptr %10, align 8
  %20 = load double, ptr %5, align 8
  %21 = fmul double 1.500000e+00, %20
  %22 = load double, ptr %6, align 8
  %23 = fmul double %21, %22
  store double %23, ptr %11, align 8
  %24 = load double, ptr %11, align 8
  %25 = load i64, ptr %9, align 8
  %26 = uitofp i64 %25 to double
  %27 = fdiv double %24, %26
  %28 = fadd double 1.000000e+00, %27
  store double %28, ptr %12, align 8
  %29 = load double, ptr %12, align 8
  %30 = load double, ptr %10, align 8
  %31 = fcmp ogt double %29, %30
  br i1 %31, label %32, label %34

32:                                               ; preds = %4
  %33 = load double, ptr %10, align 8
  store double %33, ptr %12, align 8
  br label %34

34:                                               ; preds = %32, %4
  %35 = load double, ptr %12, align 8
  %36 = fcmp olt double %35, 4.000000e+00
  br i1 %36, label %37, label %38

37:                                               ; preds = %34
  store double 4.000000e+00, ptr %12, align 8
  br label %38

38:                                               ; preds = %37, %34
  %39 = load double, ptr %12, align 8
  %40 = fcmp ogt double %39, 1.024000e+03
  br i1 %40, label %41, label %42

41:                                               ; preds = %38
  store double 1.024000e+03, ptr %12, align 8
  br label %42

42:                                               ; preds = %41, %38
  %43 = load double, ptr %12, align 8
  %44 = fptosi double %43 to i32
  store i32 %44, ptr %13, align 4
  %45 = load i32, ptr %13, align 4
  %46 = sext i32 %45 to i64
  %47 = call i32 @my_log2(i64 noundef %46)
  store i32 %47, ptr %14, align 4
  %48 = load i32, ptr %14, align 4
  %49 = load i32, ptr %7, align 4
  %50 = add i32 %48, %49
  %51 = icmp sge i32 %50, 32
  br i1 %51, label %52, label %55

52:                                               ; preds = %42
  %53 = load i32, ptr %7, align 4
  %54 = sub i32 32, %53
  store i32 %54, ptr %14, align 4
  br label %55

55:                                               ; preds = %52, %42
  %56 = load ptr, ptr %8, align 8
  %57 = icmp ne ptr %56, null
  br i1 %57, label %58, label %61

58:                                               ; preds = %55
  %59 = load i32, ptr %14, align 4
  %60 = load ptr, ptr %8, align 8
  store i32 %59, ptr %60, align 4
  br label %61

61:                                               ; preds = %58, %55
  %62 = load i32, ptr %14, align 4
  %63 = shl i32 1, %62
  store i32 %63, ptr %13, align 4
  %64 = load i32, ptr %13, align 4
  call void @llvm.lifetime.end.p0(i64 4, ptr %14) #9
  call void @llvm.lifetime.end.p0(i64 4, ptr %13) #9
  call void @llvm.lifetime.end.p0(i64 8, ptr %12) #9
  call void @llvm.lifetime.end.p0(i64 8, ptr %11) #9
  call void @llvm.lifetime.end.p0(i64 8, ptr %10) #9
  call void @llvm.lifetime.end.p0(i64 8, ptr %9) #9
  ret i32 %64
}

; Function Attrs: nounwind uwtable
define internal void @hashagg_spill_init(ptr noundef %0, ptr noundef %1, i32 noundef %2, double noundef %3, double noundef %4) #0 {
  %6 = alloca ptr, align 8
  %7 = alloca ptr, align 8
  %8 = alloca i32, align 4
  %9 = alloca double, align 8
  %10 = alloca double, align 8
  %11 = alloca i32, align 4
  %12 = alloca i32, align 4
  %13 = alloca i32, align 4
  %14 = alloca i32, align 4
  store ptr %0, ptr %6, align 8
  store ptr %1, ptr %7, align 8
  store i32 %2, ptr %8, align 4
  store double %3, ptr %9, align 8
  store double %4, ptr %10, align 8
  call void @llvm.lifetime.start.p0(i64 4, ptr %11) #9
  call void @llvm.lifetime.start.p0(i64 4, ptr %12) #9
  %15 = load double, ptr %9, align 8
  %16 = load double, ptr %10, align 8
  %17 = load i32, ptr %8, align 4
  %18 = call i32 @hash_choose_num_partitions(double noundef %15, double noundef %16, i32 noundef %17, ptr noundef %12)
  store i32 %18, ptr %11, align 4
  %19 = load i32, ptr %11, align 4
  %20 = sext i32 %19 to i64
  %21 = mul i64 8, %20
  %22 = call ptr @palloc0(i64 noundef %21)
  %23 = load ptr, ptr %6, align 8
  %24 = getelementptr inbounds nuw %struct.HashAggSpill, ptr %23, i32 0, i32 1
  store ptr %22, ptr %24, align 8
  %25 = load i32, ptr %11, align 4
  %26 = sext i32 %25 to i64
  %27 = mul i64 8, %26
  %28 = call ptr @palloc0(i64 noundef %27)
  %29 = load ptr, ptr %6, align 8
  %30 = getelementptr inbounds nuw %struct.HashAggSpill, ptr %29, i32 0, i32 2
  store ptr %28, ptr %30, align 8
  %31 = load i32, ptr %11, align 4
  %32 = sext i32 %31 to i64
  %33 = mul i64 40, %32
  %34 = call ptr @palloc0(i64 noundef %33)
  %35 = load ptr, ptr %6, align 8
  %36 = getelementptr inbounds nuw %struct.HashAggSpill, ptr %35, i32 0, i32 5
  store ptr %34, ptr %36, align 8
  call void @llvm.lifetime.start.p0(i64 4, ptr %13) #9
  store i32 0, ptr %13, align 4
  br label %37

37:                                               ; preds = %51, %5
  %38 = load i32, ptr %13, align 4
  %39 = load i32, ptr %11, align 4
  %40 = icmp slt i32 %38, %39
  br i1 %40, label %42, label %41

41:                                               ; preds = %37
  call void @llvm.lifetime.end.p0(i64 4, ptr %13) #9
  br label %54

42:                                               ; preds = %37
  %43 = load ptr, ptr %7, align 8
  %44 = call ptr @LogicalTapeCreate(ptr noundef %43)
  %45 = load ptr, ptr %6, align 8
  %46 = getelementptr inbounds nuw %struct.HashAggSpill, ptr %45, i32 0, i32 1
  %47 = load ptr, ptr %46, align 8
  %48 = load i32, ptr %13, align 4
  %49 = sext i32 %48 to i64
  %50 = getelementptr inbounds ptr, ptr %47, i64 %49
  store ptr %44, ptr %50, align 8
  br label %51

51:                                               ; preds = %42
  %52 = load i32, ptr %13, align 4
  %53 = add i32 %52, 1
  store i32 %53, ptr %13, align 4
  br label %37, !llvm.loop !49

54:                                               ; preds = %41
  %55 = load i32, ptr %8, align 4
  %56 = sub i32 32, %55
  %57 = load i32, ptr %12, align 4
  %58 = sub i32 %56, %57
  %59 = load ptr, ptr %6, align 8
  %60 = getelementptr inbounds nuw %struct.HashAggSpill, ptr %59, i32 0, i32 4
  store i32 %58, ptr %60, align 4
  %61 = load ptr, ptr %6, align 8
  %62 = getelementptr inbounds nuw %struct.HashAggSpill, ptr %61, i32 0, i32 4
  %63 = load i32, ptr %62, align 4
  %64 = icmp slt i32 %63, 32
  br i1 %64, label %65, label %74

65:                                               ; preds = %54
  %66 = load i32, ptr %11, align 4
  %67 = sub i32 %66, 1
  %68 = load ptr, ptr %6, align 8
  %69 = getelementptr inbounds nuw %struct.HashAggSpill, ptr %68, i32 0, i32 4
  %70 = load i32, ptr %69, align 4
  %71 = shl i32 %67, %70
  %72 = load ptr, ptr %6, align 8
  %73 = getelementptr inbounds nuw %struct.HashAggSpill, ptr %72, i32 0, i32 3
  store i32 %71, ptr %73, align 8
  br label %77

74:                                               ; preds = %54
  %75 = load ptr, ptr %6, align 8
  %76 = getelementptr inbounds nuw %struct.HashAggSpill, ptr %75, i32 0, i32 3
  store i32 0, ptr %76, align 8
  br label %77

77:                                               ; preds = %74, %65
  %78 = load i32, ptr %11, align 4
  %79 = load ptr, ptr %6, align 8
  %80 = getelementptr inbounds nuw %struct.HashAggSpill, ptr %79, i32 0, i32 0
  store i32 %78, ptr %80, align 8
  call void @llvm.lifetime.start.p0(i64 4, ptr %14) #9
  store i32 0, ptr %14, align 4
  br label %81

81:                                               ; preds = %93, %77
  %82 = load i32, ptr %14, align 4
  %83 = load i32, ptr %11, align 4
  %84 = icmp slt i32 %82, %83
  br i1 %84, label %86, label %85

85:                                               ; preds = %81
  call void @llvm.lifetime.end.p0(i64 4, ptr %14) #9
  br label %96

86:                                               ; preds = %81
  %87 = load ptr, ptr %6, align 8
  %88 = getelementptr inbounds nuw %struct.HashAggSpill, ptr %87, i32 0, i32 5
  %89 = load ptr, ptr %88, align 8
  %90 = load i32, ptr %14, align 4
  %91 = sext i32 %90 to i64
  %92 = getelementptr inbounds %struct.hyperLogLogState, ptr %89, i64 %91
  call void @initHyperLogLog(ptr noundef %92, i8 noundef zeroext 5)
  br label %93

93:                                               ; preds = %86
  %94 = load i32, ptr %14, align 4
  %95 = add i32 %94, 1
  store i32 %95, ptr %14, align 4
  br label %81, !llvm.loop !50

96:                                               ; preds = %85
  call void @llvm.lifetime.end.p0(i64 4, ptr %12) #9
  call void @llvm.lifetime.end.p0(i64 4, ptr %11) #9
  ret void
}