; Function Attrs: nounwind uwtable
define internal fastcc void @hashagg_spill_init(ptr noundef captures(none) initializes((8, 24), (32, 40)) %0, ptr noundef %1, i32 noundef %2, double noundef %3, double noundef %4) unnamed_addr #2 {
  %6 = tail call i64 @get_hash_memory_limit() #12
  %7 = uitofp i64 %6 to double
  %8 = tail call double @llvm.fmuladd.f64(double %7, double 2.500000e-01, double -8.192000e+03)
  %9 = fmul double %8, 0x3F20000000000000
  %10 = fmul double %3, 1.500000e+00
  %11 = fmul double %10, %4
  %12 = fdiv double %11, %7
  %13 = fadd double %12, 1.000000e+00
  %14 = fcmp ogt double %13, %9
  %.019.i = select i1 %14, double %9, double %13
  %15 = fcmp olt double %.019.i, 4.000000e+00
  %.1.i = select i1 %15, double 4.000000e+00, double %.019.i
  %16 = fcmp ogt double %.1.i, 1.024000e+03
  %.2.i = select i1 %16, double 1.024000e+03, double %.1.i
  %17 = fptosi double %.2.i to i32
  %18 = sext i32 %17 to i64
  %19 = tail call i32 @my_log2(i64 noundef %18) #12
  %20 = add i32 %19, %2
  %21 = icmp sgt i32 %20, 31
  %22 = sub i32 32, %2
  %.0.i = select i1 %21, i32 %22, i32 %19
  %23 = shl nuw i32 1, %.0.i
  %24 = sext i32 %23 to i64
  %25 = shl nsw i64 %24, 3
  %26 = tail call ptr @palloc0(i64 noundef %25) #12
  %27 = getelementptr inbounds nuw i8, ptr %0, i64 8
  store ptr %26, ptr %27, align 8
  %28 = tail call ptr @palloc0(i64 noundef %25) #12
  %29 = getelementptr inbounds nuw i8, ptr %0, i64 16
  store ptr %28, ptr %29, align 8
  %30 = mul nsw i64 %24, 40
  %31 = tail call ptr @palloc0(i64 noundef %30) #12
  %32 = getelementptr inbounds nuw i8, ptr %0, i64 32
  store ptr %31, ptr %32, align 8
  %.not = icmp eq i32 %.0.i, 31
  br i1 %.not, label %._crit_edge, label %.lr.ph.preheader

.lr.ph.preheader:                                 ; preds = %5
  %smax = tail call i32 @llvm.smax.i32(i32 %23, i32 1)
  %wide.trip.count = zext nneg i32 %smax to i64
  br label %.lr.ph

._crit_edge:                                      ; preds = %.lr.ph, %5
  %33 = add i32 %2, %.0.i
  %34 = sub i32 32, %33
  %35 = getelementptr inbounds nuw i8, ptr %0, i64 28
  store i32 %34, ptr %35, align 4
  %36 = icmp slt i32 %34, 32
  %37 = add i32 %23, -1
  %38 = shl i32 %37, %34
  %.sink = select i1 %36, i32 %38, i32 0
  %39 = getelementptr inbounds nuw i8, ptr %0, i64 24
  store i32 %.sink, ptr %39, align 8
  store i32 %23, ptr %0, align 8
  br i1 %.not, label %._crit_edge36, label %.lr.ph35.preheader

.lr.ph:                                           ; preds = %.lr.ph.preheader, %.lr.ph
  %indvars.iv = phi i64 [ 0, %.lr.ph.preheader ], [ %indvars.iv.next, %.lr.ph ]
  %40 = tail call ptr @LogicalTapeCreate(ptr noundef %1) #12
  %41 = load ptr, ptr %27, align 8
  %42 = getelementptr inbounds nuw ptr, ptr %41, i64 %indvars.iv
  store ptr %40, ptr %42, align 8
  %indvars.iv.next = add nuw nsw i64 %indvars.iv, 1
  %exitcond.not = icmp eq i64 %indvars.iv.next, %wide.trip.count
  br i1 %exitcond.not, label %._crit_edge, label %.lr.ph, !llvm.loop !46

.lr.ph35.preheader:                               ; preds = %._crit_edge
  %smax42 = tail call i32 @llvm.smax.i32(i32 %23, i32 1)
  %wide.trip.count43 = zext nneg i32 %smax42 to i64
  br label %.lr.ph35

._crit_edge36:                                    ; preds = %.lr.ph35, %._crit_edge
  ret void

.lr.ph35:                                         ; preds = %.lr.ph35.preheader, %.lr.ph35
  %indvars.iv39 = phi i64 [ 0, %.lr.ph35.preheader ], [ %indvars.iv.next40, %.lr.ph35 ]
  %43 = load ptr, ptr %32, align 8
  %44 = getelementptr inbounds nuw %struct.hyperLogLogState, ptr %43, i64 %indvars.iv39
  tail call void @initHyperLogLog(ptr noundef %44, i8 noundef zeroext 5) #12
  %indvars.iv.next40 = add nuw nsw i64 %indvars.iv39, 1
  %exitcond44.not = icmp eq i64 %indvars.iv.next40, %wide.trip.count43
  br i1 %exitcond44.not, label %._crit_edge36, label %.lr.ph35, !llvm.loop !47
}